target datalayout = "e-m:e-p270:32:32-p271:32:32-p272:64:64-i64:64-i128:128-f80:128-n8:16:32:64-S128"
target triple = "x86_64-pc-linux-gnu"

%struct.pollfd = type { i32, i32, i32, ptr, ptr, ptr }

; Function Attrs: nounwind uwtable
define void @poll_notify(ptr noundef %0, i32 noundef %1, i32 noundef %2) #0 {
  %4 = alloca ptr, align 8
  %5 = alloca i32, align 4
  %6 = alloca i32, align 4
  %7 = alloca i32, align 4
  %8 = alloca ptr, align 8
  store ptr %0, ptr %4, align 8
  store i32 %1, ptr %5, align 4
  store i32 %2, ptr %6, align 4
  store i32 0, ptr %7, align 4
  br label %9

9:                                                ; preds = %73, %3
  %10 = load i32, ptr %7, align 4
  %11 = load i32, ptr %5, align 4
  %12 = icmp slt i32 %10, %11
  br i1 %12, label %13, label %16

13:                                               ; preds = %9
  %14 = load i32, ptr %6, align 4
  %15 = icmp ne i32 %14, 0
  br label %16

16:                                               ; preds = %13, %9
  %17 = phi i1 [ false, %9 ], [ %15, %13 ]
  br i1 %17, label %18, label %76

18:                                               ; preds = %16
  %19 = load ptr, ptr %4, align 8
  %20 = load i32, ptr %7, align 4
  %21 = sext i32 %20 to i64
  %22 = getelementptr inbounds ptr, ptr %19, i64 %21
  %23 = load ptr, ptr %22, align 8
  store ptr %23, ptr %8, align 8
  %24 = load ptr, ptr %8, align 8
  %25 = icmp ne ptr %24, null
  br i1 %25, label %26, label %72

26:                                               ; preds = %18
  %27 = load i32, ptr %6, align 4
  %28 = load ptr, ptr %8, align 8
  %29 = getelementptr inbounds %struct.pollfd, ptr %28, i32 0, i32 1
  %30 = load i32, ptr %29, align 4
  %31 = or i32 %30, 8
  %32 = or i32 %31, 16
  %33 = and i32 %27, %32
  %34 = load ptr, ptr %8, align 8
  %35 = getelementptr inbounds %struct.pollfd, ptr %34, i32 0, i32 2
  %36 = load i32, ptr %35, align 8
  %37 = or i32 %36, %33
  store i32 %37, ptr %35, align 8
  %38 = load ptr, ptr %8, align 8
  %39 = getelementptr inbounds %struct.pollfd, ptr %38, i32 0, i32 2
  %40 = load i32, ptr %39, align 8
  %41 = and i32 %40, 24
  %42 = icmp ne i32 %41, 0
  br i1 %42, label %43, label %48

43:                                               ; preds = %26
  %44 = load ptr, ptr %8, align 8
  %45 = getelementptr inbounds %struct.pollfd, ptr %44, i32 0, i32 2
  %46 = load i32, ptr %45, align 8
  %47 = and i32 %46, -5
  store i32 %47, ptr %45, align 8
  br label %48

48:                                               ; preds = %43, %26
  %49 = load ptr, ptr %8, align 8
  %50 = getelementptr inbounds %struct.pollfd, ptr %49, i32 0, i32 2
  %51 = load i32, ptr %50, align 8
  %52 = icmp ne i32 %51, 0
  br i1 %52, label %59, label %53

53:                                               ; preds = %48
  %54 = load ptr, ptr %8, align 8
  %55 = getelementptr inbounds %struct.pollfd, ptr %54, i32 0, i32 1
  %56 = load i32, ptr %55, align 4
  %57 = and i32 %56, 65536
  %58 = icmp ne i32 %57, 0
  br i1 %58, label %59, label %71

59:                                               ; preds = %53, %48
  %60 = load ptr, ptr %8, align 8
  %61 = getelementptr inbounds %struct.pollfd, ptr %60, i32 0, i32 4
  %62 = load ptr, ptr %61, align 8
  %63 = icmp ne ptr %62, null
  br i1 %63, label %64, label %71

64:                                               ; preds = %59
  br label %65

65:                                               ; preds = %64
  br label %66

66:                                               ; preds = %65
  %67 = load ptr, ptr %8, align 8
  %68 = getelementptr inbounds %struct.pollfd, ptr %67, i32 0, i32 4
  %69 = load ptr, ptr %68, align 8
  %70 = load ptr, ptr %8, align 8
  call void %69(ptr noundef %70)
  br label %71

71:                                               ; preds = %66, %59, %53
  br label %72

72:                                               ; preds = %71, %18
  br label %73

73:                                               ; preds = %72
  %74 = load i32, ptr %7, align 4
  %75 = add nsw i32 %74, 1
  store i32 %75, ptr %7, align 4
  br label %9, !llvm.loop !6

76:                                               ; preds = %16
  ret void
}