; Function Attrs: nounwind uwtable
define void @poll_notify(ptr noundef readonly captures(none) %0, i32 noundef %1, i32 noundef %2) local_unnamed_addr #0 {
  %4 = icmp ne i32 %2, 0
  %5 = icmp sgt i32 %1, 0
  %6 = and i1 %4, %5
  br i1 %6, label %.lr.ph.split.preheader, label %._crit_edge

.lr.ph.split.preheader:                           ; preds = %3
  %wide.trip.count = zext nneg i32 %1 to i64
  br label %.lr.ph.split

.lr.ph.split:                                     ; preds = %.lr.ph.split.preheader, %25
  %indvars.iv = phi i64 [ 0, %.lr.ph.split.preheader ], [ %indvars.iv.next, %25 ]
  %7 = getelementptr inbounds nuw ptr, ptr %0, i64 %indvars.iv
  %8 = load ptr, ptr %7, align 8
  %.not = icmp eq ptr %8, null
  br i1 %.not, label %25, label %9

9:                                                ; preds = %.lr.ph.split
  %10 = getelementptr inbounds nuw i8, ptr %8, i64 4
  %11 = load i32, ptr %10, align 4
  %12 = or i32 %11, 24
  %13 = and i32 %12, %2
  %14 = getelementptr inbounds nuw i8, ptr %8, i64 8
  %15 = load i32, ptr %14, align 8
  %16 = or i32 %13, %15
  %17 = and i32 %16, 24
  %.not19 = icmp eq i32 %17, 0
  %18 = and i32 %16, -5
  %spec.select = select i1 %.not19, i32 %16, i32 %18
  store i32 %spec.select, ptr %14, align 8
  %19 = and i32 %11, 65536
  %20 = or i32 %spec.select, %19
  %or.cond = icmp eq i32 %20, 0
  br i1 %or.cond, label %25, label %21

21:                                               ; preds = %9
  %22 = getelementptr inbounds nuw i8, ptr %8, i64 24
  %23 = load ptr, ptr %22, align 8
  %.not22 = icmp eq ptr %23, null
  br i1 %.not22, label %25, label %24

24:                                               ; preds = %21
  tail call void %23(ptr noundef nonnull %8) #4
  br label %25

25:                                               ; preds = %9, %.lr.ph.split, %24, %21
  %indvars.iv.next = add nuw nsw i64 %indvars.iv, 1
  %exitcond.not = icmp eq i64 %indvars.iv.next, %wide.trip.count
  br i1 %exitcond.not, label %._crit_edge, label %.lr.ph.split, !llvm.loop !6

._crit_edge:                                      ; preds = %25, %3
  ret void
}